target datalayout = "e-m:e-p270:32:32-p271:32:32-p272:64:64-i64:64-i128:128-f80:128-n8:16:32:64-S128"
target triple = "x86_64-pc-linux-gnu"

%struct.Wlc_Ntk_t_ = type { ptr, ptr, %struct.Vec_Int_t_, %struct.Vec_Int_t_, %struct.Vec_Int_t_, %struct.Vec_Int_t_, %struct.Vec_Int_t_, %struct.Vec_Int_t_, ptr, ptr, ptr, [60 x i32], [60 x i32], i32, i32, i32, i32, i32, ptr, i32, i32, ptr, ptr, ptr, ptr, ptr, %struct.Vec_Int_t_, %struct.Vec_Int_t_, i32, %struct.Vec_Int_t_, %struct.Vec_Int_t_, %struct.Vec_Int_t_, %struct.Vec_Int_t_, %struct.Vec_Int_t_, %struct.Vec_Int_t_ }
%struct.Vec_Int_t_ = type { i32, i32, ptr }

@stdout = external global ptr, align 8
@.str.1 = private unnamed_addr constant [2 x i8] c"w\00", align 1
@.str.2 = private unnamed_addr constant [41 x i8] c"Cannot open the intermediate file \22%s\22.\0A\00", align 1
@.str.32 = private unnamed_addr constant [8 x i8] c"unknown\00", align 1
@.str.75 = private unnamed_addr constant [10 x i8] c"%s_%s.dot\00", align 1

; Function Attrs: nounwind uwtable
define void @Wlc_NtkShow(ptr noundef %0, ptr noundef %1) #0 {
  %3 = alloca ptr, align 8
  %4 = alloca ptr, align 8
  %5 = alloca ptr, align 8
  %6 = alloca [200 x i8], align 16
  %7 = alloca ptr, align 8
  %8 = alloca ptr, align 8
  %9 = alloca i32, align 4
  store ptr %0, ptr %3, align 8, !tbaa !3
  store ptr %1, ptr %4, align 8, !tbaa !10
  call void @llvm.lifetime.start.p0(i64 8, ptr %5) #6
  call void @llvm.lifetime.start.p0(i64 200, ptr %6) #6
  call void @llvm.lifetime.start.p0(i64 8, ptr %7) #6
  %10 = load ptr, ptr %3, align 8, !tbaa !3
  %11 = getelementptr inbounds nuw %struct.Wlc_Ntk_t_, ptr %10, i32 0, i32 0
  %12 = load ptr, ptr %11, align 8, !tbaa !22
  %13 = call ptr @Extra_FileDesignName(ptr noundef %12)
  store ptr %13, ptr %7, align 8, !tbaa !8
  call void @llvm.lifetime.start.p0(i64 8, ptr %8) #6
  %14 = load ptr, ptr %3, align 8, !tbaa !3
  %15 = getelementptr inbounds nuw %struct.Wlc_Ntk_t_, ptr %14, i32 0, i32 1
  %16 = load ptr, ptr %15, align 8, !tbaa !30
  %17 = icmp ne ptr %16, null
  br i1 %17, label %18, label %23

18:                                               ; preds = %2
  %19 = load ptr, ptr %3, align 8, !tbaa !3
  %20 = getelementptr inbounds nuw %struct.Wlc_Ntk_t_, ptr %19, i32 0, i32 1
  %21 = load ptr, ptr %20, align 8, !tbaa !30
  %22 = call ptr @Extra_FileDesignName(ptr noundef %21)
  br label %24

23:                                               ; preds = %2
  br label %24

24:                                               ; preds = %23, %18
  %25 = phi ptr [ %22, %18 ], [ @.str.32, %23 ]
  store ptr %25, ptr %8, align 8, !tbaa !8
  %26 = getelementptr inbounds [200 x i8], ptr %6, i64 0, i64 0
  %27 = load ptr, ptr %7, align 8, !tbaa !8
  %28 = load ptr, ptr %8, align 8, !tbaa !8
  %29 = call i32 (ptr, ptr, ...) @sprintf(ptr noundef %26, ptr noundef @.str.75, ptr noundef %27, ptr noundef %28) #6
  %30 = load ptr, ptr %7, align 8, !tbaa !8
  %31 = icmp ne ptr %30, null
  br i1 %31, label %32, label %34

32:                                               ; preds = %24
  %33 = load ptr, ptr %7, align 8, !tbaa !8
  call void @free(ptr noundef %33) #6
  store ptr null, ptr %7, align 8, !tbaa !8
  br label %35

34:                                               ; preds = %24
  br label %35

35:                                               ; preds = %34, %32
  %36 = load ptr, ptr %8, align 8, !tbaa !8
  %37 = call i32 @strcmp(ptr noundef %36, ptr noundef @.str.32) #7
  %38 = icmp ne i32 %37, 0
  br i1 %38, label %39, label %46

39:                                               ; preds = %35
  %40 = load ptr, ptr %8, align 8, !tbaa !8
  %41 = icmp ne ptr %40, null
  br i1 %41, label %42, label %44

42:                                               ; preds = %39
  %43 = load ptr, ptr %8, align 8, !tbaa !8
  call void @free(ptr noundef %43) #6
  store ptr null, ptr %8, align 8, !tbaa !8
  br label %45

44:                                               ; preds = %39
  br label %45

45:                                               ; preds = %44, %42
  br label %46

46:                                               ; preds = %45, %35
  %47 = getelementptr inbounds [200 x i8], ptr %6, i64 0, i64 0
  %48 = call noalias ptr @fopen(ptr noundef %47, ptr noundef @.str.1)
  store ptr %48, ptr %5, align 8, !tbaa !12
  %49 = icmp eq ptr %48, null
  br i1 %49, label %50, label %54

50:                                               ; preds = %46
  %51 = load ptr, ptr @stdout, align 8, !tbaa !12
  %52 = getelementptr inbounds [200 x i8], ptr %6, i64 0, i64 0
  %53 = call i32 (ptr, ptr, ...) @fprintf(ptr noundef %51, ptr noundef @.str.2, ptr noundef %52) #6
  store i32 1, ptr %9, align 4
  br label %61

54:                                               ; preds = %46
  %55 = load ptr, ptr %5, align 8, !tbaa !12
  %56 = call i32 @fclose(ptr noundef %55)
  %57 = load ptr, ptr %3, align 8, !tbaa !3
  %58 = getelementptr inbounds [200 x i8], ptr %6, i64 0, i64 0
  %59 = load ptr, ptr %4, align 8, !tbaa !10
  call void @Wlc_NtkDumpDot(ptr noundef %57, ptr noundef %58, ptr noundef %59)
  %60 = getelementptr inbounds [200 x i8], ptr %6, i64 0, i64 0
  call void @Abc_ShowFile(ptr noundef %60, i32 noundef 0)
  store i32 0, ptr %9, align 4
  br label %61

61:                                               ; preds = %54, %50
  call void @llvm.lifetime.end.p0(i64 8, ptr %8) #6
  call void @llvm.lifetime.end.p0(i64 8, ptr %7) #6
  call void @llvm.lifetime.end.p0(i64 200, ptr %6) #6
  call void @llvm.lifetime.end.p0(i64 8, ptr %5) #6
  %62 = load i32, ptr %9, align 4
  switch i32 %62, label %64 [
    i32 0, label %63
    i32 1, label %63
  ]

63:                                               ; preds = %61, %61
  ret void

64:                                               ; preds = %61
  unreachable
}