; Function Attrs: nounwind uwtable
define void @Wlc_NtkShow(ptr noundef %0, ptr noundef %1) local_unnamed_addr #0 {
  %3 = alloca [200 x i8], align 16
  call void @llvm.lifetime.start.p0(i64 200, ptr nonnull %3) #8
  %4 = load ptr, ptr %0, align 8, !tbaa !28
  %5 = tail call ptr @Extra_FileDesignName(ptr noundef %4) #8
  %6 = getelementptr inbounds nuw i8, ptr %0, i64 8
  %7 = load ptr, ptr %6, align 8, !tbaa !29
  %.not = icmp eq ptr %7, null
  br i1 %.not, label %10, label %8

8:                                                ; preds = %2
  %9 = tail call ptr @Extra_FileDesignName(ptr noundef nonnull %7) #8
  br label %10

10:                                               ; preds = %2, %8
  %11 = phi ptr [ %9, %8 ], [ @.str.32, %2 ]
  %12 = call i32 (ptr, ptr, ...) @sprintf(ptr noundef nonnull dereferenceable(1) %3, ptr noundef nonnull dereferenceable(1) @.str.75, ptr noundef %5, ptr noundef %11) #8
  %.not17 = icmp eq ptr %5, null
  br i1 %.not17, label %14, label %13

13:                                               ; preds = %10
  tail call void @free(ptr noundef nonnull %5) #8
  br label %14

14:                                               ; preds = %10, %13
  %15 = tail call i32 @strcmp(ptr noundef nonnull dereferenceable(1) %11, ptr noundef nonnull dereferenceable(8) @.str.32) #9
  %.not18 = icmp eq i32 %15, 0
  br i1 %.not18, label %17, label %16

16:                                               ; preds = %14
  tail call void @free(ptr noundef nonnull %11) #8
  br label %17

17:                                               ; preds = %16, %14
  %18 = call noalias ptr @fopen(ptr noundef nonnull %3, ptr noundef nonnull @.str.1)
  %19 = icmp eq ptr %18, null
  br i1 %19, label %20, label %23

20:                                               ; preds = %17
  %21 = load ptr, ptr @stdout, align 8, !tbaa !19
  %22 = call i32 (ptr, ptr, ...) @fprintf(ptr noundef %21, ptr noundef nonnull @.str.2, ptr noundef nonnull %3) #8
  br label %25

23:                                               ; preds = %17
  %24 = tail call i32 @fclose(ptr noundef nonnull %18)
  call void @Wlc_NtkDumpDot(ptr noundef nonnull %0, ptr noundef nonnull %3, ptr noundef %1)
  call void @Abc_ShowFile(ptr noundef nonnull %3, i32 noundef 0) #8
  br label %25

25:                                               ; preds = %23, %20
  call void @llvm.lifetime.end.p0(i64 200, ptr nonnull %3) #8
  ret void
}